Certificate:
    Data:
        Version: 3 (0x2)
        Serial Number: 4167 (0x1047)
        Signature Algorithm: sha256WithRSAEncryption
        Issuer: C=US, ST=California, L=Santa Clara, O=Wi-Fi Alliance, CN=WFA Root Certificate/emailAddress=support@wi-fi.org
        Validity
            Not Before: May 10 23:46:44 2013 GMT
            Not After : May  8 23:46:44 2023 GMT
        Subject: C=US, ST=California, O=Wi-Fi Alliance, CN=Client Certificate IDM/emailAddress=support@wi-fi.org
        Subject Public Key Info:
            Public Key Algorithm: rsaEncryption
            RSA Public Key: (2048 bit)
                Modulus (2048 bit):
                    00:ea:84:bd:86:09:3c:ce:c9:28:9d:63:02:44:b3:
                    45:ff:fc:c9:b3:6e:9f:1e:8d:55:40:a7:51:12:d2:
                    58:15:96:94:a5:fc:f7:81:ef:44:0f:bb:72:34:d4:
                    3d:7f:4a:fb:43:57:e9:27:4f:37:cb:08:e4:5a:89:
                    5d:dd:62:20:c2:12:f8:67:83:ad:62:ba:bc:c9:d4:
                    a1:3e:f1:50:76:6a:da:31:fa:4f:95:a9:54:fa:62:
                    b1:56:e1:1d:da:08:a5:0e:5e:96:3f:4c:fb:33:c7:
                    b9:57:98:a5:d9:54:68:6b:1f:c2:8b:72:e5:b8:47:
                    2f:63:d1:59:d3:20:a9:7d:9b:bd:cf:d5:91:9c:aa:
                    c8:60:19:83:b6:b0:fa:5b:6f:25:30:a7:0c:63:92:
                    cb:52:2e:b5:4c:58:6c:8b:e8:9a:40:38:0e:ec:92:
                    2c:94:4d:91:4d:e8:8a:f0:bd:d6:91:ae:7c:d3:a1:
                    bc:a6:01:88:e3:4c:78:f2:34:e3:4f:37:61:02:0b:
                    cb:3a:b4:84:f1:f4:1b:8b:b1:a3:1b:0c:7d:5a:eb:
                    25:d4:2a:76:1f:2d:27:dd:34:76:14:af:51:dc:01:
                    fc:4f:0e:de:25:ad:b0:80:9b:c4:c2:10:86:cc:30:
                    42:d9:ba:5c:8d:a1:75:4f:e5:d3:0b:50:99:b2:34:
                    b0:dd
                Exponent: 65537 (0x10001)
        X509v3 extensions:
            X509v3 Basic Constraints: critical
                CA:FALSE, pathlen:0
            X509v3 Key Usage: 
                Digital Signature, Non Repudiation, Key Encipherment
            X509v3 Extended Key Usage: critical
                TLS Web Client Authentication
            X509v3 Subject Key Identifier: 
                70:06:07:55:59:4D:48:8A:3A:0C:F4:E6:AF:01:87:0A:A0:05:A4:23
            X509v3 Authority Key Identifier: 
                keyid:0B:03:C2:3E:54:A2:28:BD:3E:49:DE:72:F1:5F:8E:AB:0E:97:67:82

    Signature Algorithm: sha256WithRSAEncryption
        08:f1:2e:8f:68:58:22:56:97:1e:aa:2b:c8:73:ef:90:30:25:
        cd:3c:03:31:d7:0e:c9:e2:ed:90:02:a7:3b:31:30:ee:cf:c3:
        77:a0:54:c1:b6:16:18:2e:28:a2:9f:82:39:22:6e:da:77:3d:
        47:95:b6:df:b6:92:21:13:0e:71:2a:ea:1b:d9:b9:40:22:5d:
        54:3d:34:63:cb:2e:ed:7e:e5:c0:3e:3a:32:e8:d5:8e:b4:d7:
        a9:26:02:1f:23:03:8d:2a:b2:d7:b4:c6:b3:b5:d2:9c:f5:4f:
        1f:9f:f3:71:59:68:55:13:d8:0d:25:6d:31:51:60:36:10:e6:
        d0:67:a9:81:d1:82:dd:90:ef:b7:78:b7:40:62:90:0f:d9:0d:
        c2:df:bc:7e:d1:56:c9:57:de:46:4c:e3:72:40:a3:a4:af:99:
        79:1d:a3:16:d7:8c:76:95:6b:b1:57:f9:59:90:94:88:4d:34:
        85:89:21:c1:ee:c9:1c:55:9f:ef:9f:15:48:7d:23:b6:45:83:
        4d:c2:55:3e:19:a2:37:1a:ed:24:cd:20:e3:32:b6:4c:e8:2a:
        2a:e7:96:e0:17:84:31:e1:17:e4:b9:03:0f:6a:c2:4f:6e:88:
        8f:ab:08:ad:92:4b:84:fa:4b:f6:81:f4:dd:f1:5a:68:f2:1c:
        5f:93:2e:37
-----BEGIN CERTIFICATE-----
MIIEBTCCAu2gAwIBAgICEEcwDQYJKoZIhvcNAQELBQAwgZIxCzAJBgNVBAYTAlVT
MRMwEQYDVQQIDApDYWxpZm9ybmlhMRQwEgYDVQQHDAtTYW50YSBDbGFyYTEXMBUG
A1UECgwOV2ktRmkgQWxsaWFuY2UxHTAbBgNVBAMMFFdGQSBSb290IENlcnRpZmlj
YXRlMSAwHgYJKoZIhvcNAQkBFhFzdXBwb3J0QHdpLWZpLm9yZzAeFw0xMzA1MTAy
MzQ2NDRaFw0yMzA1MDgyMzQ2NDRaMH4xCzAJBgNVBAYTAlVTMRMwEQYDVQQIDApD
YWxpZm9ybmlhMRcwFQYDVQQKDA5XaS1GaSBBbGxpYW5jZTEfMB0GA1UEAwwWQ2xp
ZW50IENlcnRpZmljYXRlIElETTEgMB4GCSqGSIb3DQEJARYRc3VwcG9ydEB3aS1m
aS5vcmcwggEiMA0GCSqGSIb3DQEBAQUAA4IBDwAwggEKAoIBAQDqhL2GCTzOySid
YwJEs0X//Mmzbp8ejVVAp1ES0lgVlpSl/PeB70QPu3I01D1/SvtDV+knTzfLCORa
iV3dYiDCEvhng61iurzJ1KE+8VB2atox+k+VqVT6YrFW4R3aCKUOXpY/TPszx7lX
mKXZVGhrH8KLcuW4Ry9j0VnTIKl9m73P1ZGcqshgGYO2sPpbbyUwpwxjkstSLrVM
WGyL6JpAOA7skiyUTZFN6IrwvdaRrnzTobymAYjjTHjyNONPN2ECC8s6tITx9BuL
saMbDH1a6yXUKnYfLSfdNHYUr1HcAfxPDt4lrbCAm8TCEIbMMELZulyNoXVP5dML
UJmyNLDdAgMBAAGjeDB2MA8GA1UdEwEB/wQFMAMCAQAwCwYDVR0PBAQDAgXgMBYG
A1UdJQEB/wQMMAoGCCsGAQUFBwMCMB0GA1UdDgQWBBRwBgdVWU1IijoM9OavAYcK
oAWkIzAfBgNVHSMEGDAWgBQLA8I+VKIovT5J3nLxX46rDpdngjANBgkqhkiG9w0B
AQsFAAOCAQEACPEuj2hYIlaXHqoryHPvkDAlzTwDMdcOyeLtkAKnOzEw7s/Dd6BU
wbYWGC4oop+COSJu2nc9R5W237aSIRMOcSrqG9m5QCJdVD00Y8su7X7lwD46MujV
jrTXqSYCHyMDjSqy17TGs7XSnPVPH5/zcVloVRPYDSVtMVFgNhDm0GepgdGC3ZDv
t3i3QGKQD9kNwt+8ftFWyVfeRkzjckCjpK+ZeR2jFteMdpVrsVf5WZCUiE00hYkh
we7JHFWf758VSH0jtkWDTcJVPhmiNxrtJM0g4zK2TOgqKueW4BeEMeEX5LkDD2rC
T26Ij6sIrZJLhPpL9oH03fFaaPIcX5MuNw==
-----END CERTIFICATE-----
-----BEGIN RSA PRIVATE KEY-----
MIIEpAIBAAKCAQEA6oS9hgk8zskonWMCRLNF//zJs26fHo1VQKdREtJYFZaUpfz3
ge9ED7tyNNQ9f0r7Q1fpJ083ywjkWold3WIgwhL4Z4OtYrq8ydShPvFQdmraMfpP
lalU+mKxVuEd2gilDl6WP0z7M8e5V5il2VRoax/Ci3LluEcvY9FZ0yCpfZu9z9WR
nKrIYBmDtrD6W28lMKcMY5LLUi61TFhsi+iaQDgO7JIslE2RTeiK8L3Wka5806G8
pgGI40x48jTjTzdhAgvLOrSE8fQbi7GjGwx9Wusl1Cp2Hy0n3TR2FK9R3AH8Tw7e
Ja2wgJvEwhCGzDBC2bpcjaF1T+XTC1CZsjSw3QIDAQABAoIBAC7DQTdU6DcjjWG0
uGMSjEa7FU0eJcRl0jYOJvBl2QKVABcJFiFmoF+ytNcr6wdS4D9RbEBWX32wzDfx
ZDIcuwN33OhnLU+ehL6KE40FeVHjhJaqnuvs0/EJdOsqAFXVm3P+EF+W7hApJx/8
ZDWtyxRxRM2hn4TbTOvOdubOgH13CuT11S4t3oRZAD/HGqRJTIc1PNk8BXRpEuoe
0vkLE21L7KySiFbDi6gJqe8XVgIjTazkN5s8en1jcGJbJKPm8Mitxt19dWbvERnH
ruD3vM8Gyg5N3WEQRFKb1WNWwvAxZK22gP0vnzkBSuHXA6IprNAbAjTND77IdFn8
zoa7E4ECgYEA/AJq4dr3AiZVuJ7y9DBxCc1gAPZU4pRyvhi5/cs73hkLcWS+q8YR
jD3DMun+iYvPuGxHkDkLyCOo+339whvYhBv6lLwL3oWu5LfDVQATlcq/6Lm+XohP
E4NlOTAhybDnxzzGoGU7ErOz8vQLMqJSN3D1AFvJ0aDYJkIGKV4hDzUCgYEA7jtr
RYBKchpGF96hiEGjviFXu+wCneZGXIk7SWC5BzbHzn7UlRNFdC9OmcFLxxPy/NGS
CLRX+1MmyR0q2NC5bs+vRcoIvYgAGb1tJ+59xGduDtmK0LHylR4ErdMndqLoRnwV
VUQASDg/bXGFBpCSIml6y4wMXVH1ZodKHYL7iAkCgYBPne/olQYOvs+8OTNmpFtC
DolzJF/jCaVKm4M/RFMQsvbjh0GaAUSP+v9NeZG6INqqWEMvtGYdf+6mLcLa7XM1
IaXEEbjqP2/mwIvMse5+F4UT4ILdWNEqyAtVyvgRwXsoffH+wJyuJuoGKsXS5Gd3
Lo+o4lbbjKZdR+SscxmctQKBgQDfYCODNXmYZ35Vn1CCvFlWS1lCQVdqyqIq3hoT
AXg8hWbv/ghCB6HWAQ2IKbBt6AysdayiMMdWRm9Vn92vEnbsqhvEKl3rqPu/JtiU
2pBeekS988ivSksU+uKUQir8mF+Gx44RNwO0s9j1O73pm+EKFzEmbhih39lj23Lp
HQnQUQKBgQCm0qw6dY/9ZsvOHnMGrewWjpes/PWn49n8L8y/Ecc4MXh9hMkGDYDg
nkeSioXUdXilNVIKEjF06sOFQ+YdQL8C12nYYwMZfrtnNUzCoVKTnN4J/6TK2OPZ
x2t47kSI/J2s2q9AgtqmakmfB+NNcuuFEwNCc9WP/zs0khaKS4YSNQ==
-----END RSA PRIVATE KEY-----
