Certificate:
    Data:
        Version: 3 (0x2)
        Serial Number: 4202 (0x106a)
        Signature Algorithm: sha256WithRSAEncryption
        Issuer: C=US, ST=California, L=Santa Clara, O=Wi-Fi Alliance, CN=WFA Root Certificate/emailAddress=support@wi-fi.org
        Validity
            Not Before: Apr  8 19:04:53 2014 GMT
            Not After : Apr  5 19:04:53 2024 GMT
        Subject: C=US, ST=California, O=Wi-Fi Alliance, CN=Client Certificate IDU/emailAddress=support@wi-fi.org
        Subject Public Key Info:
            Public Key Algorithm: rsaEncryption
            RSA Public Key: (2048 bit)
                Modulus (2048 bit):
                    00:ba:24:51:4e:50:bd:f0:97:81:6b:52:74:b6:3e:
                    b7:5a:c7:be:ce:4f:16:4a:01:6d:55:6e:f1:67:03:
                    0e:cc:cc:71:2d:4d:b5:94:af:d5:f0:42:c5:a1:a2:
                    52:1d:e2:4c:33:85:0a:5c:4d:a2:0b:77:eb:c8:02:
                    a6:4e:1a:00:23:c2:75:56:5a:c4:b8:c8:da:2f:04:
                    9d:f8:e5:58:b8:59:5f:34:1b:af:b7:fc:6b:51:49:
                    f5:2c:c8:a4:af:99:34:89:fe:6c:a0:ae:d6:36:56:
                    80:5c:37:b3:81:07:a1:97:9b:d8:66:81:3b:d1:0a:
                    30:87:4d:fd:99:7b:c5:a1:e5:42:1d:48:71:17:74:
                    98:6d:a0:15:33:55:f1:c8:95:08:61:32:d2:af:2a:
                    ec:9e:4d:63:79:83:84:c8:f3:14:b5:53:62:a1:d9:
                    c9:0e:e8:b2:c3:6a:59:13:90:4d:4c:bf:8a:f6:5c:
                    43:1a:7a:48:90:7e:ab:3f:0d:dd:a5:94:ce:85:22:
                    c3:a2:3f:51:27:14:d1:83:87:6c:b7:dd:5a:9d:68:
                    8a:32:dd:06:ca:83:87:f7:d0:06:88:74:f4:c8:5d:
                    cf:5a:bb:31:5f:64:03:0f:52:6e:93:2e:72:7c:ae:
                    5f:b9:0f:29:8c:93:37:8c:eb:b2:bd:47:53:98:44:
                    13:15
                Exponent: 65537 (0x10001)
        X509v3 extensions:
            X509v3 Basic Constraints: critical
                CA:FALSE, pathlen:0
            X509v3 Key Usage: 
                Digital Signature, Non Repudiation, Key Encipherment
            X509v3 Extended Key Usage: critical
                TLS Web Client Authentication
            X509v3 Subject Key Identifier: 
                E5:9D:B5:55:AA:2A:6A:F9:26:D3:1C:02:BA:0C:D6:96:83:6A:01:C2
            X509v3 Authority Key Identifier: 
                keyid:0B:03:C2:3E:54:A2:28:BD:3E:49:DE:72:F1:5F:8E:AB:0E:97:67:82

    Signature Algorithm: sha256WithRSAEncryption
        82:1a:e3:85:e0:6e:39:cd:bf:25:69:71:5a:7c:38:a3:f9:44:
        2b:24:0d:c3:2d:24:87:86:3a:e8:41:d0:c7:60:4d:91:5b:99:
        4e:97:6d:c9:fa:6d:f1:5c:bb:a2:97:4d:53:0c:00:28:09:c1:
        1f:1e:cb:c4:4a:2a:4e:43:63:44:9d:74:a7:11:4e:c0:86:89:
        f0:5b:8e:ec:a4:b4:07:08:49:54:29:5a:df:96:37:87:02:13:
        35:4d:10:7f:94:37:eb:2b:72:93:e9:c5:85:61:b1:08:37:85:
        73:37:81:ae:82:67:4e:b3:25:59:49:cb:2d:b4:4a:04:6d:77:
        16:5c:5a:c2:b9:69:a5:22:fc:c2:ca:28:4f:35:27:dd:37:d8:
        a7:e2:e3:d3:92:d6:a7:bf:02:cb:48:b7:d2:9b:12:f5:c2:49:
        c6:9c:4e:27:cd:50:00:02:0d:8d:7b:e9:1f:f2:55:de:ca:ae:
        de:cc:4c:7a:7c:d1:72:a3:cc:d3:32:68:1f:43:9d:6a:d0:09:
        02:78:1f:44:bd:28:82:39:b8:08:23:d7:9a:fe:a1:13:8d:02:
        ff:f8:fc:61:7a:91:3a:34:57:c7:48:c1:0d:68:37:5e:27:28:
        d2:0e:f2:22:60:04:a1:a3:24:e8:14:5c:85:8b:25:d1:99:e7:
        e1:eb:65:c6
-----BEGIN CERTIFICATE-----
MIIEBTCCAu2gAwIBAgICEGowDQYJKoZIhvcNAQELBQAwgZIxCzAJBgNVBAYTAlVT
MRMwEQYDVQQIDApDYWxpZm9ybmlhMRQwEgYDVQQHDAtTYW50YSBDbGFyYTEXMBUG
A1UECgwOV2ktRmkgQWxsaWFuY2UxHTAbBgNVBAMMFFdGQSBSb290IENlcnRpZmlj
YXRlMSAwHgYJKoZIhvcNAQkBFhFzdXBwb3J0QHdpLWZpLm9yZzAeFw0xNDA0MDgx
OTA0NTNaFw0yNDA0MDUxOTA0NTNaMH4xCzAJBgNVBAYTAlVTMRMwEQYDVQQIDApD
YWxpZm9ybmlhMRcwFQYDVQQKDA5XaS1GaSBBbGxpYW5jZTEfMB0GA1UEAwwWQ2xp
ZW50IENlcnRpZmljYXRlIElEVTEgMB4GCSqGSIb3DQEJARYRc3VwcG9ydEB3aS1m
aS5vcmcwggEiMA0GCSqGSIb3DQEBAQUAA4IBDwAwggEKAoIBAQC6JFFOUL3wl4Fr
UnS2Prdax77OTxZKAW1VbvFnAw7MzHEtTbWUr9XwQsWholId4kwzhQpcTaILd+vI
AqZOGgAjwnVWWsS4yNovBJ345Vi4WV80G6+3/GtRSfUsyKSvmTSJ/mygrtY2VoBc
N7OBB6GXm9hmgTvRCjCHTf2Ze8Wh5UIdSHEXdJhtoBUzVfHIlQhhMtKvKuyeTWN5
g4TI8xS1U2Kh2ckO6LLDalkTkE1Mv4r2XEMaekiQfqs/Dd2llM6FIsOiP1EnFNGD
h2y33VqdaIoy3QbKg4f30AaIdPTIXc9auzFfZAMPUm6TLnJ8rl+5DymMkzeM67K9
R1OYRBMVAgMBAAGjeDB2MA8GA1UdEwEB/wQFMAMCAQAwCwYDVR0PBAQDAgXgMBYG
A1UdJQEB/wQMMAoGCCsGAQUFBwMCMB0GA1UdDgQWBBTlnbVVqipq+SbTHAK6DNaW
g2oBwjAfBgNVHSMEGDAWgBQLA8I+VKIovT5J3nLxX46rDpdngjANBgkqhkiG9w0B
AQsFAAOCAQEAghrjheBuOc2/JWlxWnw4o/lEKyQNwy0kh4Y66EHQx2BNkVuZTpdt
yfpt8Vy7opdNUwwAKAnBHx7LxEoqTkNjRJ10pxFOwIaJ8FuO7KS0BwhJVCla35Y3
hwITNU0Qf5Q36ytyk+nFhWGxCDeFczeBroJnTrMlWUnLLbRKBG13FlxawrlppSL8
wsooTzUn3TfYp+Lj05LWp78Cy0i30psS9cJJxpxOJ81QAAINjXvpH/JV3squ3sxM
enzRcqPM0zJoH0OdatAJAngfRL0ogjm4CCPXmv6hE40C//j8YXqROjRXx0jBDWg3
Xico0g7yImAEoaMk6BRchYsl0Znn4etlxg==
-----END CERTIFICATE-----
-----BEGIN RSA PRIVATE KEY-----
MIIEpQIBAAKCAQEAuiRRTlC98JeBa1J0tj63Wse+zk8WSgFtVW7xZwMOzMxxLU21
lK/V8ELFoaJSHeJMM4UKXE2iC3fryAKmThoAI8J1VlrEuMjaLwSd+OVYuFlfNBuv
t/xrUUn1LMikr5k0if5soK7WNlaAXDezgQehl5vYZoE70Qowh039mXvFoeVCHUhx
F3SYbaAVM1XxyJUIYTLSryrsnk1jeYOEyPMUtVNiodnJDuiyw2pZE5BNTL+K9lxD
GnpIkH6rPw3dpZTOhSLDoj9RJxTRg4dst91anWiKMt0GyoOH99AGiHT0yF3PWrsx
X2QDD1Juky5yfK5fuQ8pjJM3jOuyvUdTmEQTFQIDAQABAoIBAQCrneZUhT7JvnW1
BD3U9PfJu9Wgkuwi6TPri7EH35ramTdTpIzgfEmMDZP21RhOsyC8c1G9Dlpzpmn9
auv3oCM21QenyWIMWCpJJUGcg5+Lv+J1wXz97bzoIn7ofkjQGTmGbMusTeX0DUal
PznBoc6LYEVhJI+IyJM7fF1vD92Dx6yoakfWiGt1oM/z9HxVnnfowXINCLJl5Xki
JVwdB1kwwCMWUsd4Jlm5iGBbwKsEczdxyQEGDlyoSqCU8j9BOLTLKl56ZEfgkRfi
mAl0eafCXhxxrzFf30785o+ipnbFthVvG+Rod12Tw5liz+2ZmTk1jNr1fQjfhvXq
Jha6991BAoGBAPfey/Hpy1YarHPLY5ahhgGJC3p6eXTvlriM12r5T9rg1kZpzW5T
yyy6KIqcV0RuglVG1u3Q75/1dOGdoYJ0+NphhL646I7WXoOf8fnqiVWDG/1X0tS1
WcWNYDd53OziYjMYYeSj8s455NStI6SvFfD24XVZgzk0awTyjEecYJqxAoGBAMA/
Ol886Zygfg17xecBK3uqI/xP2RI+GIVHJrZvc638U3ASWYy74PNb1gbu5kUQZLBK
QVeC5ulvL6kv3Xgou6/tX3Og5ARXmNgJC75tPc0ZxAdYtpc147V1cQ5wSAI4ZuGZ
CEXlj6kJKbSy5xlDMVboA0qZnlCDA+/tiBzP8A+lAoGBAN7c3ohTCnUPpJC0hYVR
E3jb7IsiBYRjSyQB1kojgW4uC9rhlEinZJ2Bf6QpL7miluLvv52x51HuUznsDeSL
IZjQZ5dIECkli3NTYzCudO6C5K6jwTdpGx8pnyIiGsaOQXbpbFM0KcLMgPfL+KlA
lzzB7TMi2X6cp8CaCBD3BFDxAoGAVnfZ5F48YONa7uud3sIK8ctb9i9f3jGpy8Bt
7B6C9F2KldzbBE645hyHToUDc0rlTtmHPDo3bAVDdaB+x33itUVZ6mMSS9WufHTN
IHB4HJkbL4a6UZa+fa5+FFVyPfVqaMvxCacwD4J8jLbu9NDhD0q5uEMSDvpuueqn
jvYD7rUCgYEA4ttUOBSiy4I/LxOYC8ChwLTo1rgkQ41QFCD4fCU5GC3oJayl+871
0khtj5GtSNcYhQLco8+XNw90/P4z7DNVZtw0q0j6CftXv5UEuJysr91TnLuoH9kZ
5QOruexeX0pbzSg3j/GSJ+jtTemastcpigOUuNu3aTpBqwPq43aU8P0=
-----END RSA PRIVATE KEY-----
