Certificate:
    Data:
        Version: 3 (0x2)
        Serial Number:
            e4:8d:32:4e:43:c0:c1:28
    Signature Algorithm: sha256WithRSAEncryption
        Issuer: C=US, L=Santa Clara, O=Wi-Fi Alliance, CN=ca1.w1-fi.org
        Validity
            Not Before: Jun  7 23:55:00 2019 GMT
            Not After : Jun  6 23:55:00 2029 GMT
        Subject: C=US, O=Wi-Fi Alliance, CN=server1.w1-fi.org
        Subject Public Key Info:
            Public Key Algorithm: rsaEncryption
                Public-Key: (3072 bit)
                Modulus:
                    00:cf:37:40:75:d3:5d:c0:56:a9:b5:b2:8a:97:27:
                    d7:02:de:7f:6f:9a:eb:19:f6:b8:c2:ba:1d:99:75:
                    42:23:79:a0:10:07:44:03:55:ba:28:8e:b6:6e:8e:
                    ee:a3:33:17:0d:bf:e4:bc:bc:e5:44:61:53:c6:13:
                    fb:93:96:9d:2f:2a:b5:b1:93:f6:34:3f:c9:88:b3:
                    b0:a6:a4:53:8c:5a:de:de:87:f4:d0:25:91:89:34:
                    98:b7:27:b5:53:e4:76:5f:c6:d5:09:dd:2e:78:8a:
                    93:30:66:ca:a1:5b:d0:3e:d3:f0:6d:8e:f3:35:4d:
                    85:22:f3:0f:28:e2:7f:34:59:c1:70:ae:e4:62:f8:
                    46:1f:85:a3:ef:39:b2:ba:82:26:e5:9e:44:1a:b9:
                    09:fa:2f:39:b6:c2:0b:73:ba:23:20:a9:af:81:ab:
                    52:85:2c:84:be:1c:0c:4c:4a:61:c0:e2:cc:cf:cb:
                    8d:84:26:0b:25:e0:ae:8e:7d:37:39:9c:09:27:9a:
                    36:de:e3:25:66:98:1c:88:48:9c:3b:21:1e:c2:f9:
                    16:5f:07:c7:41:b2:a8:b2:36:79:a1:b6:63:85:b3:
                    d0:13:b0:ac:7e:fd:b6:ec:2e:ee:b2:85:32:cd:5a:
                    91:15:27:57:b6:c1:b5:d0:af:cd:d3:0f:ae:cd:f4:
                    28:18:da:5a:ef:1c:70:a9:fb:6e:63:f8:09:18:d2:
                    f2:63:ce:f7:40:59:d9:46:89:00:70:7c:28:b7:6f:
                    7a:bd:e4:1b:35:95:2d:8f:36:98:ef:d2:46:9e:5b:
                    0b:cf:fe:8d:d4:b8:e6:3d:fb:41:39:9d:3f:a0:7b:
                    a0:66:38:e5:6f:ed:a7:6b:a1:9d:b3:98:08:31:f5:
                    be:1f:01:92:d7:0f:56:6c:e5:c1:ac:24:ba:6d:a9:
                    f3:d0:b0:0e:dd:6d:75:97:27:9d:d2:56:d0:40:5e:
                    67:43:53:53:77:4d:2c:15:8b:74:f6:4b:47:92:20:
                    db:cd:f2:0e:6e:1e:a9:36:09:b7
                Exponent: 65537 (0x10001)
        X509v3 extensions:
            X509v3 Basic Constraints: critical
                CA:FALSE
            X509v3 Subject Key Identifier: 
                98:48:A0:73:42:6C:B6:15:34:B5:B8:C9:0B:D9:13:42:C9:C4:04:EE
            X509v3 Authority Key Identifier: 
                keyid:65:6C:6E:79:89:D0:D8:FE:39:A3:10:DA:2E:F1:0C:7A:90:BA:4F:71

            X509v3 Subject Alternative Name: critical
                DNS:server1.w1-fi.org
            X509v3 Extended Key Usage: critical
                TLS Web Server Authentication
            X509v3 Key Usage: 
                Digital Signature, Key Encipherment
    Signature Algorithm: sha256WithRSAEncryption
         68:1b:f5:bb:30:9e:85:0e:cb:9d:4b:fa:1d:f7:4d:46:38:03:
         27:fe:22:cc:56:14:db:45:ad:ac:45:3a:44:b5:25:98:2f:0b:
         30:f4:f6:c9:03:b0:f3:b6:73:95:a3:98:f6:fd:e7:30:fe:ee:
         5a:5f:51:08:10:df:a2:de:6b:63:ff:03:96:90:a1:b8:6e:6a:
         33:8f:a9:5d:d3:23:39:3f:43:fa:90:78:14:76:ae:4d:40:55:
         e1:7c:19:fa:0f:8e:d4:31:e4:ab:d6:1d:73:14:fb:7e:4f:47:
         6b:4e:90:98:b4:66:d1:04:0f:5d:6b:a2:cd:a3:6c:e3:77:10:
         91:ea:63:5c:01:e4:d5:a1:89:1b:a0:bd:fc:5a:c7:24:50:55:
         91:92:f9:4c:43:a3:bc:2e:1b:e5:e4:6a:93:a8:54:39:ae:36:
         ff:2a:4b:53:79:74:21:03:01:55:3e:23:62:21:6a:3a:52:ae:
         34:a5:1c:ca:6b:58:6c:da:18:8b:ba:06:85:cd:17:6a:39:5a:
         b9:96:80:f9:b2:0a:28:3b:b7:ea:16:bc:c4:33:84:5f:cb:c2:
         f6:be:e8:3b:8b:fd:79:07:06:88:85:ba:4f:0e:6f:85:f3:7f:
         35:27:ce:42:b2:1a:d5:1c:ec:0e:f5:94:c3:21:14:8c:a0:8e:
         c1:32:be:a2:e1:4d:94:d0:42:89:34:8d:db:a2:f4:3c:54:98:
         f4:8e:67:c2:c0:a8:28:9c:38:04:fc:09:80:e8:5f:19:5b:8c:
         c2:9d:d4:ed:0a:7b:cb:a4:4a:22:36:a0:6f:d8:38:19:5c:91:
         f7:32:b8:b3:78:c9:39:2d:17:27:ec:b5:3f:71:65:32:f2:c5:
         9a:47:f2:f6:0a:3c:e0:43:4c:a0:4a:1d:6f:83:92:0b:9c:e5:
         d2:24:94:e2:15:0a:0c:40:76:d6:d9:5e:6c:bb:51:8a:73:90:
         79:a5:6e:13:89:11:f8:9d:f1:20:44:03:ad:09:5f:5a:8b:21:
         55:ae:d5:98:04:a8
-----BEGIN CERTIFICATE-----
MIIEsTCCAxmgAwIBAgIJAOSNMk5DwMEoMA0GCSqGSIb3DQEBCwUAMFQxCzAJBgNV
BAYTAlVTMRQwEgYDVQQHDAtTYW50YSBDbGFyYTEXMBUGA1UECgwOV2ktRmkgQWxs
aWFuY2UxFjAUBgNVBAMMDWNhMS53MS1maS5vcmcwHhcNMTkwNjA3MjM1NTAwWhcN
MjkwNjA2MjM1NTAwWjBCMQswCQYDVQQGEwJVUzEXMBUGA1UECgwOV2ktRmkgQWxs
aWFuY2UxGjAYBgNVBAMMEXNlcnZlcjEudzEtZmkub3JnMIIBojANBgkqhkiG9w0B
AQEFAAOCAY8AMIIBigKCAYEAzzdAddNdwFaptbKKlyfXAt5/b5rrGfa4wrodmXVC
I3mgEAdEA1W6KI62bo7uozMXDb/kvLzlRGFTxhP7k5adLyq1sZP2ND/JiLOwpqRT
jFre3of00CWRiTSYtye1U+R2X8bVCd0ueIqTMGbKoVvQPtPwbY7zNU2FIvMPKOJ/
NFnBcK7kYvhGH4Wj7zmyuoIm5Z5EGrkJ+i85tsILc7ojIKmvgatShSyEvhwMTEph
wOLMz8uNhCYLJeCujn03OZwJJ5o23uMlZpgciEicOyEewvkWXwfHQbKosjZ5obZj
hbPQE7Csfv227C7usoUyzVqRFSdXtsG10K/N0w+uzfQoGNpa7xxwqftuY/gJGNLy
Y873QFnZRokAcHwot296veQbNZUtjzaY79JGnlsLz/6N1LjmPftBOZ0/oHugZjjl
b+2na6Gds5gIMfW+HwGS1w9WbOXBrCS6banz0LAO3W11lyed0lbQQF5nQ1NTd00s
FYt09ktHkiDbzfIObh6pNgm3AgMBAAGjgZcwgZQwDAYDVR0TAQH/BAIwADAdBgNV
HQ4EFgQUmEigc0JsthU0tbjJC9kTQsnEBO4wHwYDVR0jBBgwFoAUZWxueYnQ2P45
oxDaLvEMepC6T3EwHwYDVR0RAQH/BBUwE4IRc2VydmVyMS53MS1maS5vcmcwFgYD
VR0lAQH/BAwwCgYIKwYBBQUHAwEwCwYDVR0PBAQDAgWgMA0GCSqGSIb3DQEBCwUA
A4IBgQBoG/W7MJ6FDsudS/od901GOAMn/iLMVhTbRa2sRTpEtSWYLwsw9PbJA7Dz
tnOVo5j2/ecw/u5aX1EIEN+i3mtj/wOWkKG4bmozj6ld0yM5P0P6kHgUdq5NQFXh
fBn6D47UMeSr1h1zFPt+T0drTpCYtGbRBA9da6LNo2zjdxCR6mNcAeTVoYkboL38
WsckUFWRkvlMQ6O8Lhvl5GqTqFQ5rjb/KktTeXQhAwFVPiNiIWo6Uq40pRzKa1hs
2hiLugaFzRdqOVq5loD5sgooO7fqFrzEM4Rfy8L2vug7i/15BwaIhbpPDm+F8381
J85CshrVHOwO9ZTDIRSMoI7BMr6i4U2U0EKJNI3bovQ8VJj0jmfCwKgonDgE/AmA
6F8ZW4zCndTtCnvLpEoiNqBv2DgZXJH3MrizeMk5LRcn7LU/cWUy8sWaR/L2Cjzg
Q0ygSh1vg5ILnOXSJJTiFQoMQHbW2V5su1GKc5B5pW4TiRH4nfEgRAOtCV9aiyFV
rtWYBKg=
-----END CERTIFICATE-----
