Certificate:
    Data:
        Version: 3 (0x2)
        Serial Number:
            bb:b7:2d:b2:61:73:c3:e5
    Signature Algorithm: sha256WithRSAEncryption
        Issuer: C=US, L=Santa Clara, O=Wi-Fi Alliance, CN=ca2.w1-fi.org
        Validity
            Not Before: Jun 11 00:58:45 2019 GMT
            Not After : Jun 10 00:58:45 2029 GMT
        Subject: C=US, O=Wi-Fi Alliance, CN=server2.w1-fi.org
        Subject Public Key Info:
            Public Key Algorithm: rsaEncryption
                Public-Key: (3072 bit)
                Modulus:
                    00:c3:d8:42:82:f2:5c:68:43:21:0a:84:38:28:5d:
                    e0:75:62:79:93:5b:ec:8f:ae:ae:e0:09:b5:84:9d:
                    48:01:e8:20:f5:b2:85:a7:8e:3a:77:10:e8:93:89:
                    87:34:23:fa:42:72:ae:35:38:25:9e:1c:6a:3e:42:
                    27:1e:8b:14:43:d8:db:7e:79:b0:11:80:fa:22:01:
                    c8:fc:4d:47:af:11:62:48:b2:53:a5:26:f5:fa:6f:
                    a0:19:5e:97:2d:6b:87:93:09:63:76:aa:d1:95:3c:
                    9b:8b:d3:85:3b:ad:1c:46:ce:68:79:98:4a:c8:ee:
                    2c:88:2a:fe:1e:2b:1d:92:0d:cb:6f:b4:92:8e:18:
                    ea:fa:99:28:16:25:04:69:fd:3f:fd:9d:fb:db:ab:
                    1f:08:56:f3:9d:27:77:87:08:38:96:4b:2d:8f:f0:
                    74:66:1c:f0:9b:c3:b8:e3:a5:a9:88:e8:b0:23:48:
                    d6:81:9c:7a:f6:a8:58:a6:3e:a9:7c:8c:64:f5:e9:
                    63:56:46:de:15:0b:de:55:31:11:bd:b2:72:19:e4:
                    ab:94:00:a9:87:60:9a:64:43:e0:53:35:fc:a3:b9:
                    9e:06:59:ed:26:f3:0a:33:d2:db:ec:d9:44:dc:fb:
                    6c:bd:4c:37:14:6f:28:3a:c9:1e:ba:cd:a6:6d:94:
                    b0:49:e7:6d:34:28:49:09:ea:0e:0e:20:bc:7b:72:
                    ed:01:dd:17:6a:0b:d4:26:c4:b5:ab:5f:ad:da:9a:
                    12:88:d3:ac:2b:d6:7f:cf:f8:18:f8:c2:ac:e6:21:
                    7f:55:bc:c3:7b:75:16:00:95:d4:4f:df:a7:42:29:
                    0b:fe:c4:62:a2:8b:bd:8f:d4:83:53:96:eb:ed:46:
                    34:6b:f1:8c:2e:7f:62:8c:5d:4d:62:a2:4e:ad:de:
                    3c:d5:9b:e6:72:af:17:a2:9b:28:7b:51:e3:ef:99:
                    dc:e4:4c:94:a9:ee:aa:0a:e0:7d:4a:d8:b7:42:d9:
                    c8:f6:4b:51:bc:a9:e9:fe:be:3d
                Exponent: 65537 (0x10001)
        X509v3 extensions:
            X509v3 Basic Constraints: critical
                CA:FALSE
            X509v3 Subject Key Identifier: 
                4A:45:0A:1D:8E:95:6E:7E:23:6E:A4:C4:8D:F0:35:C5:A7:AA:72:A2
            X509v3 Authority Key Identifier: 
                keyid:49:A0:FD:D9:F6:0B:BD:0F:DD:D1:13:08:25:2E:9A:32:D0:F4:BE:05

            X509v3 Subject Alternative Name: critical
                DNS:server2.w1-fi.org
            X509v3 Extended Key Usage: critical
                TLS Web Server Authentication
            X509v3 Key Usage: 
                Digital Signature, Key Encipherment
    Signature Algorithm: sha256WithRSAEncryption
         4e:05:8b:40:80:f2:71:59:d1:d0:c6:67:0f:7e:84:e5:c3:1e:
         4d:21:43:26:b9:e6:4a:78:e1:e8:79:53:da:9f:2e:43:76:4e:
         bb:9d:7f:0c:fe:70:9c:37:0d:18:05:fc:ce:49:7e:64:82:f1:
         ba:e6:04:cc:ca:99:b8:d4:f6:53:69:44:13:33:33:bd:a6:85:
         f9:e8:6d:b4:a2:69:0a:30:6c:71:f6:69:f9:e6:09:41:79:a2:
         6a:f6:67:d2:15:34:2e:57:e9:f8:31:81:4c:f4:bd:39:8c:a3:
         9b:08:d2:9f:84:ef:9c:f0:64:ca:34:d6:24:80:9f:29:ed:b7:
         33:ea:6a:6f:27:22:06:a3:b5:56:ee:eb:cd:12:e5:68:21:62:
         5a:a4:da:f8:f4:1a:27:26:eb:b8:ed:69:f4:79:3e:85:65:d8:
         48:3c:4b:ea:82:5d:9c:ac:a0:d0:9e:cb:76:16:a0:5d:08:18:
         96:9a:b4:24:79:1a:f1:67:99:58:d5:0b:ab:c2:ae:6b:69:85:
         32:33:80:82:f9:58:61:2f:8a:4a:64:c6:aa:b2:24:5c:c7:70:
         94:b1:b2:8e:e4:80:da:ed:56:3a:5e:b0:9d:9a:80:7a:20:78:
         e2:ab:53:aa:03:9a:44:f5:ec:46:bb:73:65:8d:17:82:63:8f:
         bf:fe:97:9e:bf:51:1f:0e:f0:6a:47:7f:85:0f:6b:f6:71:1c:
         e7:53:e3:a9:4d:27:62:c1:ca:95:90:18:5d:87:7e:0d:86:0e:
         24:0a:86:5c:65:af:7b:16:7a:18:15:25:e4:d3:9f:1d:13:56:
         b6:af:05:d1:05:a7:89:d5:69:07:96:1b:27:55:86:d2:d0:6c:
         53:79:c5:0b:48:65:9d:2e:cc:5e:e2:3d:12:69:54:04:31:52:
         73:cd:cb:70:42:c7:25:a2:df:57:4f:ec:ad:31:a5:67:3c:05:
         2c:0a:93:b1:f9:17:95:03:1d:0f:81:da:55:50:8c:bd:9d:38:
         0e:1a:d9:b4:db:b3
-----BEGIN CERTIFICATE-----
MIIEsTCCAxmgAwIBAgIJALu3LbJhc8PlMA0GCSqGSIb3DQEBCwUAMFQxCzAJBgNV
BAYTAlVTMRQwEgYDVQQHDAtTYW50YSBDbGFyYTEXMBUGA1UECgwOV2ktRmkgQWxs
aWFuY2UxFjAUBgNVBAMMDWNhMi53MS1maS5vcmcwHhcNMTkwNjExMDA1ODQ1WhcN
MjkwNjEwMDA1ODQ1WjBCMQswCQYDVQQGEwJVUzEXMBUGA1UECgwOV2ktRmkgQWxs
aWFuY2UxGjAYBgNVBAMMEXNlcnZlcjIudzEtZmkub3JnMIIBojANBgkqhkiG9w0B
AQEFAAOCAY8AMIIBigKCAYEAw9hCgvJcaEMhCoQ4KF3gdWJ5k1vsj66u4Am1hJ1I
Aegg9bKFp446dxDok4mHNCP6QnKuNTglnhxqPkInHosUQ9jbfnmwEYD6IgHI/E1H
rxFiSLJTpSb1+m+gGV6XLWuHkwljdqrRlTybi9OFO60cRs5oeZhKyO4siCr+Hisd
kg3Lb7SSjhjq+pkoFiUEaf0//Z3726sfCFbznSd3hwg4lkstj/B0Zhzwm8O446Wp
iOiwI0jWgZx69qhYpj6pfIxk9eljVkbeFQveVTERvbJyGeSrlACph2CaZEPgUzX8
o7meBlntJvMKM9Lb7NlE3PtsvUw3FG8oOskeus2mbZSwSedtNChJCeoODiC8e3Lt
Ad0XagvUJsS1q1+t2poSiNOsK9Z/z/gY+MKs5iF/VbzDe3UWAJXUT9+nQikL/sRi
oou9j9SDU5br7UY0a/GMLn9ijF1NYqJOrd481Zvmcq8Xopsoe1Hj75nc5EyUqe6q
CuB9Sti3QtnI9ktRvKnp/r49AgMBAAGjgZcwgZQwDAYDVR0TAQH/BAIwADAdBgNV
HQ4EFgQUSkUKHY6Vbn4jbqTEjfA1xaeqcqIwHwYDVR0jBBgwFoAUSaD92fYLvQ/d
0RMIJS6aMtD0vgUwHwYDVR0RAQH/BBUwE4IRc2VydmVyMi53MS1maS5vcmcwFgYD
VR0lAQH/BAwwCgYIKwYBBQUHAwEwCwYDVR0PBAQDAgWgMA0GCSqGSIb3DQEBCwUA
A4IBgQBOBYtAgPJxWdHQxmcPfoTlwx5NIUMmueZKeOHoeVPany5Ddk67nX8M/nCc
Nw0YBfzOSX5kgvG65gTMypm41PZTaUQTMzO9poX56G20omkKMGxx9mn55glBeaJq
9mfSFTQuV+n4MYFM9L05jKObCNKfhO+c8GTKNNYkgJ8p7bcz6mpvJyIGo7VW7uvN
EuVoIWJapNr49BonJuu47Wn0eT6FZdhIPEvqgl2crKDQnst2FqBdCBiWmrQkeRrx
Z5lY1Qurwq5raYUyM4CC+VhhL4pKZMaqsiRcx3CUsbKO5IDa7VY6XrCdmoB6IHji
q1OqA5pE9exGu3NljReCY4+//peev1EfDvBqR3+FD2v2cRznU+OpTSdiwcqVkBhd
h34Nhg4kCoZcZa97FnoYFSXk058dE1a2rwXRBaeJ1WkHlhsnVYbS0GxTecULSGWd
Lsxe4j0SaVQEMVJzzctwQsclot9XT+ytMaVnPAUsCpOx+ReVAx0PgdpVUIy9nTgO
Gtm027M=
-----END CERTIFICATE-----
