Certificate:
    Data:
        Version: 3 (0x2)
        Serial Number:
            bb:b7:2d:b2:61:73:c3:e9
    Signature Algorithm: sha256WithRSAEncryption
        Issuer: C=US, L=Santa Clara, O=Wi-Fi Alliance, CN=ca2.w1-fi.org
        Validity
            Not Before: Jun 13 19:03:08 2019 GMT
            Not After : Jun 12 19:03:08 2029 GMT
        Subject: C=US, O=Wi-Fi Alliance, CN=server1.w1-fi.org
        Subject Public Key Info:
            Public Key Algorithm: rsaEncryption
                Public-Key: (3072 bit)
                Modulus:
                    00:c4:4e:de:33:17:44:16:82:d3:0c:7d:19:de:a5:
                    d6:ce:28:b7:df:7e:7d:11:87:31:2b:4b:3b:c8:12:
                    bd:b8:1b:c9:39:00:86:16:11:ba:95:1a:9d:80:d9:
                    71:97:f7:37:25:57:3d:6d:4a:4b:a3:e8:47:ea:01:
                    0f:91:df:94:ff:8c:e2:d8:f7:38:2c:5c:78:ca:89:
                    d3:f1:fa:fb:85:8a:5b:a1:4e:64:72:48:33:a9:02:
                    da:14:51:d9:79:bd:21:ee:47:56:83:c6:93:19:f6:
                    75:34:81:f9:41:71:7e:34:79:c6:7c:86:0c:83:14:
                    f7:83:8c:96:1d:04:9f:9a:89:06:0a:a2:d6:f1:2c:
                    fa:ad:34:42:11:49:73:80:2f:c1:14:63:dd:02:b0:
                    80:f8:fe:8c:05:b6:69:5b:13:ed:01:fc:85:d5:f4:
                    40:39:de:b6:86:3c:bb:65:3f:c0:a2:e4:29:db:dd:
                    41:88:5d:a3:82:f6:47:94:3a:25:2d:0d:dc:08:82:
                    66:74:66:e2:3f:2b:d7:a6:14:bd:30:c1:61:e8:98:
                    37:ed:9d:58:41:40:0d:8c:0f:07:1e:0e:3e:7b:13:
                    c6:66:87:b4:34:36:63:c9:de:ca:c7:5f:07:c6:10:
                    97:53:c5:4d:9b:b9:f1:aa:49:db:fe:ec:61:9d:06:
                    c6:fc:ee:7c:c2:cb:d8:86:d3:0c:9d:db:59:64:52:
                    a8:45:1d:18:0f:04:ec:7b:00:21:e2:4f:c4:52:7a:
                    44:90:de:15:f0:32:ac:31:29:da:fb:d8:2b:a7:39:
                    64:dd:eb:3e:bf:21:7c:0c:d7:b2:03:ba:c1:6b:8f:
                    a3:19:39:d7:20:04:5f:58:51:b5:5d:5a:72:2e:9d:
                    73:45:0e:6f:b8:13:b4:f1:00:48:c9:8d:0f:e4:69:
                    8c:78:bf:a5:f9:04:a1:ef:38:95:70:94:91:0b:98:
                    2e:42:ee:52:bd:69:2f:b9:e2:10:3a:e7:6a:8f:21:
                    fd:dc:bc:d1:6e:0a:67:29:84:9b
                Exponent: 65537 (0x10001)
        X509v3 extensions:
            X509v3 Basic Constraints: critical
                CA:FALSE
            X509v3 Subject Key Identifier: 
                69:42:CF:B2:13:73:6C:EA:27:AB:43:43:1A:2C:F3:6A:D5:98:25:EA
            X509v3 Authority Key Identifier: 
                keyid:49:A0:FD:D9:F6:0B:BD:0F:DD:D1:13:08:25:2E:9A:32:D0:F4:BE:05

            X509v3 Subject Alternative Name: critical
                DNS:server1.w1-fi.org
            X509v3 Extended Key Usage: critical
                TLS Web Server Authentication
            X509v3 Key Usage: 
                Digital Signature, Key Encipherment
            X509v3 Certificate Policies: 
                Policy: 1.3.6.1.4.1.40808.1.3.1

    Signature Algorithm: sha256WithRSAEncryption
         54:6c:0f:31:3b:c8:8c:90:99:c7:7f:a1:ed:f9:dc:48:52:8a:
         27:0f:d2:ee:bf:8e:b3:df:4e:e1:56:bd:7b:39:0b:62:eb:c5:
         69:81:7a:64:da:b8:69:3c:8d:4d:f8:b1:7e:77:c2:61:cb:b4:
         1f:8e:9f:75:98:41:4e:4b:56:5d:f2:2c:6b:77:04:56:cd:04:
         56:2f:5c:fc:fe:86:78:35:3b:6e:bb:e4:03:ad:9d:24:0f:2a:
         17:68:cf:d6:bd:8c:5c:76:52:54:3b:17:08:ae:68:75:65:2e:
         54:7b:88:d6:a7:64:5e:a2:d4:01:05:9a:30:ed:23:df:a8:bd:
         7c:64:7a:2c:d1:01:5e:c0:31:0a:50:05:5e:12:1a:dd:35:af:
         f5:df:55:6b:e3:3d:00:0d:72:0c:b7:5b:61:2b:51:b3:d8:ad:
         78:e5:98:37:a0:47:f5:93:b2:0c:19:c0:39:24:91:83:b2:f8:
         96:ba:b2:28:78:6e:8d:04:a8:19:6d:2d:4a:01:00:26:95:40:
         72:80:13:2a:5d:26:c0:64:5e:26:27:33:c6:95:5b:90:27:75:
         94:5b:24:8a:94:d4:93:ce:c5:2f:43:bc:33:f2:95:c4:dd:e1:
         c6:67:b7:01:90:dc:74:93:47:0c:fb:de:6a:08:0f:90:66:cf:
         ef:d6:cd:26:fd:60:a0:ba:41:c8:60:31:ff:b3:8c:eb:f1:6c:
         f4:13:99:50:4f:38:1d:13:a9:6d:45:4b:3c:d0:b4:a5:54:60:
         f4:78:a5:07:e2:dd:e3:35:8e:8a:2b:29:a0:1c:1d:24:01:9f:
         1b:0e:bc:d5:05:04:14:e3:d0:43:d5:e6:4a:e3:8d:ad:34:93:
         6e:c3:15:58:8c:26:fb:05:7f:16:56:8b:02:66:f2:f3:b5:71:
         1a:9c:9b:c6:80:d5:b1:1d:30:be:f1:59:65:16:fd:16:81:84:
         bf:ee:33:d0:e2:84:8c:e7:e5:d8:8c:dc:49:c4:9b:b2:b9:61:
         67:cf:82:28:ee:ff
-----BEGIN CERTIFICATE-----
MIIEyzCCAzOgAwIBAgIJALu3LbJhc8PpMA0GCSqGSIb3DQEBCwUAMFQxCzAJBgNV
BAYTAlVTMRQwEgYDVQQHDAtTYW50YSBDbGFyYTEXMBUGA1UECgwOV2ktRmkgQWxs
aWFuY2UxFjAUBgNVBAMMDWNhMi53MS1maS5vcmcwHhcNMTkwNjEzMTkwMzA4WhcN
MjkwNjEyMTkwMzA4WjBCMQswCQYDVQQGEwJVUzEXMBUGA1UECgwOV2ktRmkgQWxs
aWFuY2UxGjAYBgNVBAMMEXNlcnZlcjEudzEtZmkub3JnMIIBojANBgkqhkiG9w0B
AQEFAAOCAY8AMIIBigKCAYEAxE7eMxdEFoLTDH0Z3qXWzii33359EYcxK0s7yBK9
uBvJOQCGFhG6lRqdgNlxl/c3JVc9bUpLo+hH6gEPkd+U/4zi2Pc4LFx4yonT8fr7
hYpboU5kckgzqQLaFFHZeb0h7kdWg8aTGfZ1NIH5QXF+NHnGfIYMgxT3g4yWHQSf
mokGCqLW8Sz6rTRCEUlzgC/BFGPdArCA+P6MBbZpWxPtAfyF1fRAOd62hjy7ZT/A
ouQp291BiF2jgvZHlDolLQ3cCIJmdGbiPyvXphS9MMFh6Jg37Z1YQUANjA8HHg4+
exPGZoe0NDZjyd7Kx18HxhCXU8VNm7nxqknb/uxhnQbG/O58wsvYhtMMndtZZFKo
RR0YDwTsewAh4k/EUnpEkN4V8DKsMSna+9grpzlk3es+vyF8DNeyA7rBa4+jGTnX
IARfWFG1XVpyLp1zRQ5vuBO08QBIyY0P5GmMeL+l+QSh7ziVcJSRC5guQu5SvWkv
ueIQOudqjyH93LzRbgpnKYSbAgMBAAGjgbEwga4wDAYDVR0TAQH/BAIwADAdBgNV
HQ4EFgQUaULPshNzbOonq0NDGizzatWYJeowHwYDVR0jBBgwFoAUSaD92fYLvQ/d
0RMIJS6aMtD0vgUwHwYDVR0RAQH/BBUwE4IRc2VydmVyMS53MS1maS5vcmcwFgYD
VR0lAQH/BAwwCgYIKwYBBQUHAwEwCwYDVR0PBAQDAgWgMBgGA1UdIAQRMA8wDQYL
KwYBBAGCvmgBAwEwDQYJKoZIhvcNAQELBQADggGBAFRsDzE7yIyQmcd/oe353EhS
iicP0u6/jrPfTuFWvXs5C2LrxWmBemTauGk8jU34sX53wmHLtB+On3WYQU5LVl3y
LGt3BFbNBFYvXPz+hng1O2675AOtnSQPKhdoz9a9jFx2UlQ7FwiuaHVlLlR7iNan
ZF6i1AEFmjDtI9+ovXxkeizRAV7AMQpQBV4SGt01r/XfVWvjPQANcgy3W2ErUbPY
rXjlmDegR/WTsgwZwDkkkYOy+Ja6sih4bo0EqBltLUoBACaVQHKAEypdJsBkXiYn
M8aVW5AndZRbJIqU1JPOxS9DvDPylcTd4cZntwGQ3HSTRwz73moID5Bmz+/WzSb9
YKC6QchgMf+zjOvxbPQTmVBPOB0TqW1FSzzQtKVUYPR4pQfi3eM1joorKaAcHSQB
nxsOvNUFBBTj0EPV5krjja00k27DFViMJvsFfxZWiwJm8vO1cRqcm8aA1bEdML7x
WWUW/RaBhL/uM9DihIzn5diM3EnEm7K5YWfPgiju/w==
-----END CERTIFICATE-----
