Certificate:
    Data:
        Version: 3 (0x2)
        Serial Number:
            e4:8d:32:4e:43:c0:c1:29
    Signature Algorithm: sha256WithRSAEncryption
        Issuer: C=US, L=Santa Clara, O=Wi-Fi Alliance, CN=ca1.w1-fi.org
        Validity
            Not Before: Jun  7 23:55:01 2019 GMT
            Not After : Jun  6 23:55:01 2029 GMT
        Subject: C=US, O=Wi-Fi Alliance, CN=rsa-user1
        Subject Public Key Info:
            Public Key Algorithm: rsaEncryption
                Public-Key: (3072 bit)
                Modulus:
                    00:e1:ee:0e:eb:ac:d3:e4:a2:12:d9:e6:f2:c5:a0:
                    b1:39:41:da:2f:d6:ac:f3:08:b9:ca:3d:30:53:1c:
                    06:86:08:0e:c9:bc:76:97:95:93:82:0c:25:5e:74:
                    92:fb:ff:03:0f:a3:e0:53:ea:21:83:ec:ee:83:17:
                    60:8e:ec:c8:5d:50:07:f9:4b:49:14:35:bb:54:31:
                    dc:7f:6c:d5:ba:f3:43:d8:13:f2:6c:c7:d8:ad:74:
                    67:d5:5d:bf:7f:3a:fe:2c:43:c1:d1:3a:3a:5b:47:
                    ab:9b:bf:63:53:3f:d9:89:5c:c9:19:24:50:e3:e1:
                    9c:02:6e:18:85:91:ef:85:15:ef:b4:0e:e1:ca:ca:
                    30:18:3e:0b:4b:f8:d2:ec:ea:a4:0f:e7:19:c2:4d:
                    a1:93:1e:f3:b4:25:6d:df:49:48:45:5e:dc:2a:1d:
                    f8:34:4a:88:24:27:30:b6:9d:d1:78:12:91:e7:42:
                    8c:dd:3f:0b:4f:9e:bd:09:14:46:a6:4d:4b:78:87:
                    d3:03:1b:7b:e4:8e:a1:d6:69:94:18:e6:bd:9d:90:
                    58:12:34:99:01:d1:62:f3:14:b8:1f:99:1e:70:ac:
                    ad:d1:dc:91:ab:96:b4:4a:d3:cd:ad:39:f2:e0:e6:
                    77:99:6b:5b:28:7b:4c:81:ef:b1:4f:c7:87:76:e8:
                    ff:74:cf:65:27:3f:ef:b6:5b:ab:48:77:44:23:d1:
                    1d:fe:16:7e:14:58:c4:37:ac:d0:af:3e:40:19:dd:
                    4e:78:42:6d:7c:7c:07:26:12:cd:79:ab:87:6e:eb:
                    12:93:a7:37:a4:7d:e3:b7:07:16:4b:e5:90:fc:1d:
                    31:a2:49:af:f4:4b:90:1c:ba:fd:a7:da:eb:78:ca:
                    ff:84:61:9f:4b:d8:f0:52:dc:c6:15:fc:73:8d:ff:
                    45:82:26:98:ed:03:e1:38:72:dc:be:f8:3f:52:f3:
                    7e:d8:c7:7e:51:0f:d0:a5:6e:19:75:be:55:9b:a9:
                    d5:e5:dd:55:cd:b5:43:94:42:3b
                Exponent: 65537 (0x10001)
        X509v3 extensions:
            X509v3 Basic Constraints: 
                CA:FALSE
            X509v3 Subject Key Identifier: 
                A8:35:BB:2D:03:03:61:00:9A:70:A7:4F:93:C2:F6:90:F6:40:92:64
            X509v3 Authority Key Identifier: 
                keyid:65:6C:6E:79:89:D0:D8:FE:39:A3:10:DA:2E:F1:0C:7A:90:BA:4F:71

            X509v3 Subject Alternative Name: 
                email:rsa-user1@w1-fi.org
            X509v3 Extended Key Usage: 
                TLS Web Client Authentication
            X509v3 Key Usage: 
                Digital Signature, Key Encipherment
    Signature Algorithm: sha256WithRSAEncryption
         88:c0:29:54:9b:c1:20:83:74:5a:9d:e4:d9:eb:84:31:4d:cc:
         58:b6:7d:12:b3:6e:fa:5d:1a:c5:84:8a:40:67:13:76:aa:f3:
         85:d5:84:9d:3f:12:c2:31:ee:ea:03:d8:a5:62:22:89:18:bd:
         b4:59:14:67:24:ba:d4:bb:36:d9:50:b4:3f:78:2a:0e:cb:b5:
         d1:f9:1f:c4:08:1a:d3:08:9e:cb:60:7c:6e:16:24:ff:3a:c2:
         8e:5b:52:9e:ed:66:2c:4f:ef:17:37:b9:ed:ab:e9:8c:f2:f8:
         c1:a0:82:53:02:79:68:f2:fc:8a:b7:12:69:3e:ed:1a:8e:3e:
         f2:d6:43:55:46:a3:50:bd:79:bc:40:4a:51:2b:7f:01:33:1e:
         64:84:1a:a1:73:c6:6c:6c:c0:ec:84:fe:8e:13:a2:cf:cf:b8:
         9c:eb:51:f0:5e:f6:52:f7:ba:6b:22:5f:a5:2d:1a:09:41:89:
         26:15:eb:4c:b7:a0:50:4e:fb:4a:57:07:aa:a7:5d:f0:ae:93:
         03:c6:a0:bd:98:65:1e:6c:c8:9f:6c:f6:86:ce:4d:1e:bb:72:
         45:f6:36:d3:50:5c:30:0a:01:b8:2e:d9:89:f6:7a:ea:15:32:
         d8:cc:ad:2c:c0:03:d0:b9:12:02:b0:40:30:38:6a:bb:f0:34:
         36:09:04:63:94:6a:74:cc:07:93:4f:4d:82:dc:4a:88:99:54:
         39:30:2c:6e:45:72:2c:50:80:9b:be:32:40:76:65:ff:01:8a:
         09:32:93:37:fb:f8:94:b7:e8:80:69:73:8c:39:85:9b:a6:6c:
         c8:13:40:b6:41:82:dd:e4:2a:94:01:15:22:e4:7d:59:3f:8a:
         ad:3a:d4:8f:27:53:6a:7f:7d:80:ff:f2:7a:f4:5e:15:1c:ed:
         40:89:43:15:80:4d:b7:9f:70:3d:6a:79:01:c2:48:e4:a8:60:
         33:e4:f2:a4:09:3e:01:ea:7c:80:cf:04:a5:b2:1e:e4:73:9f:
         90:37:3c:ea:99:9c
-----BEGIN CERTIFICATE-----
MIIEojCCAwqgAwIBAgIJAOSNMk5DwMEpMA0GCSqGSIb3DQEBCwUAMFQxCzAJBgNV
BAYTAlVTMRQwEgYDVQQHDAtTYW50YSBDbGFyYTEXMBUGA1UECgwOV2ktRmkgQWxs
aWFuY2UxFjAUBgNVBAMMDWNhMS53MS1maS5vcmcwHhcNMTkwNjA3MjM1NTAxWhcN
MjkwNjA2MjM1NTAxWjA6MQswCQYDVQQGEwJVUzEXMBUGA1UECgwOV2ktRmkgQWxs
aWFuY2UxEjAQBgNVBAMMCXJzYS11c2VyMTCCAaIwDQYJKoZIhvcNAQEBBQADggGP
ADCCAYoCggGBAOHuDuus0+SiEtnm8sWgsTlB2i/WrPMIuco9MFMcBoYIDsm8dpeV
k4IMJV50kvv/Aw+j4FPqIYPs7oMXYI7syF1QB/lLSRQ1u1Qx3H9s1brzQ9gT8mzH
2K10Z9Vdv386/ixDwdE6OltHq5u/Y1M/2YlcyRkkUOPhnAJuGIWR74UV77QO4crK
MBg+C0v40uzqpA/nGcJNoZMe87Qlbd9JSEVe3Cod+DRKiCQnMLad0XgSkedCjN0/
C0+evQkURqZNS3iH0wMbe+SOodZplBjmvZ2QWBI0mQHRYvMUuB+ZHnCsrdHckauW
tErTza058uDmd5lrWyh7TIHvsU/Hh3bo/3TPZSc/77Zbq0h3RCPRHf4WfhRYxDes
0K8+QBndTnhCbXx8ByYSzXmrh27rEpOnN6R947cHFkvlkPwdMaJJr/RLkBy6/afa
63jK/4Rhn0vY8FLcxhX8c43/RYImmO0D4Thy3L74P1LzftjHflEP0KVuGXW+VZup
1eXdVc21Q5RCOwIDAQABo4GQMIGNMAkGA1UdEwQCMAAwHQYDVR0OBBYEFKg1uy0D
A2EAmnCnT5PC9pD2QJJkMB8GA1UdIwQYMBaAFGVsbnmJ0Nj+OaMQ2i7xDHqQuk9x
MB4GA1UdEQQXMBWBE3JzYS11c2VyMUB3MS1maS5vcmcwEwYDVR0lBAwwCgYIKwYB
BQUHAwIwCwYDVR0PBAQDAgWgMA0GCSqGSIb3DQEBCwUAA4IBgQCIwClUm8Egg3Ra
neTZ64QxTcxYtn0Ss276XRrFhIpAZxN2qvOF1YSdPxLCMe7qA9ilYiKJGL20WRRn
JLrUuzbZULQ/eCoOy7XR+R/ECBrTCJ7LYHxuFiT/OsKOW1Ke7WYsT+8XN7ntq+mM
8vjBoIJTAnlo8vyKtxJpPu0ajj7y1kNVRqNQvXm8QEpRK38BMx5khBqhc8ZsbMDs
hP6OE6LPz7ic61HwXvZS97prIl+lLRoJQYkmFetMt6BQTvtKVweqp13wrpMDxqC9
mGUebMifbPaGzk0eu3JF9jbTUFwwCgG4LtmJ9nrqFTLYzK0swAPQuRICsEAwOGq7
8DQ2CQRjlGp0zAeTT02C3EqImVQ5MCxuRXIsUICbvjJAdmX/AYoJMpM3+/iUt+iA
aXOMOYWbpmzIE0C2QYLd5CqUARUi5H1ZP4qtOtSPJ1Nqf32A//J69F4VHO1AiUMV
gE23n3A9ankBwkjkqGAz5PKkCT4B6nyAzwSlsh7kc5+QNzzqmZw=
-----END CERTIFICATE-----
-----BEGIN PRIVATE KEY-----
MIIHAAIBADANBgkqhkiG9w0BAQEFAASCBuowggbmAgEAAoIBgQDh7g7rrNPkohLZ
5vLFoLE5Qdov1qzzCLnKPTBTHAaGCA7JvHaXlZOCDCVedJL7/wMPo+BT6iGD7O6D
F2CO7MhdUAf5S0kUNbtUMdx/bNW680PYE/Jsx9itdGfVXb9/Ov4sQ8HROjpbR6ub
v2NTP9mJXMkZJFDj4ZwCbhiFke+FFe+0DuHKyjAYPgtL+NLs6qQP5xnCTaGTHvO0
JW3fSUhFXtwqHfg0SogkJzC2ndF4EpHnQozdPwtPnr0JFEamTUt4h9MDG3vkjqHW
aZQY5r2dkFgSNJkB0WLzFLgfmR5wrK3R3JGrlrRK082tOfLg5neZa1soe0yB77FP
x4d26P90z2UnP++2W6tId0Qj0R3+Fn4UWMQ3rNCvPkAZ3U54Qm18fAcmEs15q4du
6xKTpzekfeO3BxZL5ZD8HTGiSa/0S5Acuv2n2ut4yv+EYZ9L2PBS3MYV/HON/0WC
JpjtA+E4cty++D9S837Yx35RD9Clbhl1vlWbqdXl3VXNtUOUQjsCAwEAAQKCAYEA
llp094ZWpUruvLCjU73y8yXN7BQzmLFv4xUBee2msb/fB4YybgKO3fbzT37I6ob1
JI1slquzjjY5LGh8S+FsHh1KkS72/Uoc1pUwJmTpf7awqbXsmVQN8LENAMOY0zUR
PagB7hmQCHsTy1x830QYov9qnR677kuQJVXbX9iUy76jfPKCdRBFHXz8y5xV0nD8
qdCkJdi/9Eae7H4UNopwXCoa3rR/H12SaGzkUEOKyRuimYKCeCKihmQfbVFfCwFY
Pk7koXFmG0R9Zr+DQGxUs5kCWXBmgI1ujHe8lpBYwpW4J9j0+portjqj9qmhJMuZ
+vtswSCnFmJFFUJHH7FygQLGbTsKqDbs1N7pqg7Q4eJMlqSX+dCW2jQGW3LO2Gjw
C/xn+dyysRNy2QuudqmuJ+cnBCFI2J560kfBLwpRSqV72ZP/403anhQYtqbBM5CQ
Jyo45J7aDL+9QYXadoPDFFm4HxfShOoGBV6dY3FSWROrxbFFjBhusGZMYDYqIzbx
AoHBAPEXuYH0jBNKiDdhrHunXvjrUkpiEfA3DuETr7fr9vM15SHhHw9FrwDBXk6O
zOWsk5R7EsVGplhcyJIKdAVKLLVqjo/UtkudsrI/NzVxNjbmb92eBumIJykh+uRJ
xvP665lTQzaNcNEd1g6GPo5CKyXlAthMDWH1id+NzdjBupKXaPFsRjct+spcKdC9
CrbpVjgw9o3bhNRTjbB2rryQN8V8qIsybFTneo/lftEnRoit1o1ZGtk/mXN23EQU
rKYorQKBwQDv5lI0HkmbmhlAAdjkuxuKm8KzBA5n+DmZQ12egWHXR2lLx8Qnm95x
BWc6Dk/RYfnc4C2MUgIHSXiNDCllhoiKXxnboKmXP5c+zCmp02Q/DSDQrB7PVNkr
UywIDlU93jPlvT6xQ2IwYH8wG1e/DTvReyYi7DeLB2dzsqtwhrlUR/XSjBHNT/EF
r/XE7SRmD+YJMGUBAp4aDVSpQBX5kauJuzwBDyCAwuwL56bnBcuRjrRfUhZM/IP7
SXxaIHDW64cCgcEAxtTbICsvzsUcHBiIqJ47PCzO/BtvUd4Gfme+9n87dg9PviYs
eGruzj+raDxrDUvLlpv9ugbvL1at74uBbc9jmeacVlCGW0xeUJTEEmYg4Rwgy/QF
HVo1eb3VbarO0u5wmU3K09XIYh4qKGZcdvRpI2KAeyQVsWFP6LfJOWdkWHtYiCrU
qbNY7sUdk1Ik4P8FJWh0HkAZhwa1hwAKUebaqBuL4Oif4VHaiYwqj5HFoPlFReNj
uiGyi0BOnjMyxAItAoHBAOdEp1ydEiLSVKMy5K/kfPGLpQ/EykqKrqREoBzs57CM
pEKsyznP9ooIRnJeV64ngKPg7agHavMxbeizn7jDECAs/BWRdcxcPmcIlOWl508t
TcQ9GdqQFmfA34LIpn5lFqzUWnqy1haDADoVMer5TABvct1Z0VXTBnUv+jwZdNJ+
KMoXxBWkilsMPabhYiSOERossEJgDqBY15PuNwEH4FF/0aHHvnLC9qGnaWvvV0b0
RohZ7yu6h1WZiyqreXyHQwKBwQCPfB8wrNPquzXyRQy4uEkSc/o9R/GvrZJrengr
JBvbGN61/QHNbu8URzRg9bgUTygA7hFWUt14SFgDCRWSfAROsOLgIIzCGc82JnMG
8QUoR/+KiyMkDOPUlK7+s+RsHqlOdrnH43UhwENjyhUIwTkIwNuN/OUcY20Eej8+
0LweUHAL3O4EJpxSHWMeM/DM9EKdbOqnXkXAiRJaE7lYkdchqQ6tUasUu2uh9eRS
9HFdYo5Jv6eGx/R9BZIbQlQxdKg=
-----END PRIVATE KEY-----
